target datalayout = "e-m:e-p270:32:32-p271:32:32-p272:64:64-i64:64-i128:128-f80:128-n8:16:32:64-S128"
target triple = "x86_64-pc-linux-gnu"

%struct.FunctionCallInfoBaseData = type { ptr, ptr, ptr, i32, i8, i16, [0 x %struct.NullableDatum] }
%struct.NullableDatum = type { i64, i8 }

@.str.1 = private unnamed_addr constant [18 x i8] c"array_userfuncs.c\00", align 1
@.str.8 = private unnamed_addr constant [36 x i8] c"could not determine input data type\00", align 1
@__func__.array_agg_transfn = private unnamed_addr constant [18 x i8] c"array_agg_transfn\00", align 1
@.str.9 = private unnamed_addr constant [50 x i8] c"array_agg_transfn called in non-aggregate context\00", align 1

; Function Attrs: inlinehint nounwind uwtable
define internal i64 @PointerGetDatum(ptr noundef %0) #2 {
  %2 = alloca ptr, align 8
  store ptr %0, ptr %2, align 8
  %3 = load ptr, ptr %2, align 8
  %4 = ptrtoint ptr %3 to i64
  ret i64 %4
}

; Function Attrs: inlinehint nounwind uwtable
define internal ptr @DatumGetPointer(i64 noundef %0) #2 {
  %2 = alloca i64, align 8
  store i64 %0, ptr %2, align 8
  %3 = load i64, ptr %2, align 8
  %4 = inttoptr i64 %3 to ptr
  ret ptr %4
}

; Function Attrs: nounwind uwtable
define dso_local i64 @array_agg_transfn(ptr noundef %0) #0 {
  %2 = alloca ptr, align 8
  %3 = alloca i32, align 4
  %4 = alloca ptr, align 8
  %5 = alloca ptr, align 8
  %6 = alloca i64, align 8
  store ptr %0, ptr %2, align 8
  call void @llvm.lifetime.start.p0(i64 4, ptr %3) #7
  %7 = load ptr, ptr %2, align 8
  %8 = getelementptr inbounds nuw %struct.FunctionCallInfoBaseData, ptr %7, i32 0, i32 0
  %9 = load ptr, ptr %8, align 8
  %10 = call i32 @get_fn_expr_argtype(ptr noundef %9, i32 noundef 1)
  store i32 %10, ptr %3, align 4
  call void @llvm.lifetime.start.p0(i64 8, ptr %4) #7
  call void @llvm.lifetime.start.p0(i64 8, ptr %5) #7
  call void @llvm.lifetime.start.p0(i64 8, ptr %6) #7
  %11 = load i32, ptr %3, align 4
  %12 = icmp eq i32 %11, 0
  br i1 %12, label %13, label %25

13:                                               ; preds = %1
  br label %14

14:                                               ; preds = %13
  br i1 true, label %15, label %17

15:                                               ; preds = %14
  %16 = call zeroext i1 @errstart_cold(i32 noundef 21, ptr noundef null) #8
  br i1 %16, label %19, label %22

17:                                               ; preds = %14
  %18 = call zeroext i1 @errstart(i32 noundef 21, ptr noundef null)
  br i1 %18, label %19, label %22

19:                                               ; preds = %17, %15
  %20 = call i32 @errcode(i32 noundef 50856066)
  %21 = call i32 (ptr, ...) @errmsg(ptr noundef @.str.8)
  call void @errfinish(ptr noundef @.str.1, i32 noundef 550, ptr noundef @__func__.array_agg_transfn)
  br label %22

22:                                               ; preds = %19, %17, %15
  unreachable

23:                                               ; No predecessors!
  br label %24

24:                                               ; preds = %23
  br label %25

25:                                               ; preds = %24, %1
  %26 = load ptr, ptr %2, align 8
  %27 = call i32 @AggCheckCallContext(ptr noundef %26, ptr noundef %4)
  %28 = icmp ne i32 %27, 0
  br i1 %28, label %40, label %29

29:                                               ; preds = %25
  br label %30

30:                                               ; preds = %29
  br i1 true, label %31, label %33

31:                                               ; preds = %30
  %32 = call zeroext i1 @errstart_cold(i32 noundef 21, ptr noundef null) #8
  br i1 %32, label %35, label %37

33:                                               ; preds = %30
  %34 = call zeroext i1 @errstart(i32 noundef 21, ptr noundef null)
  br i1 %34, label %35, label %37

35:                                               ; preds = %33, %31
  %36 = call i32 (ptr, ...) @errmsg_internal(ptr noundef @.str.9)
  call void @errfinish(ptr noundef @.str.1, i32 noundef 561, ptr noundef @__func__.array_agg_transfn)
  br label %37

37:                                               ; preds = %35, %33, %31
  unreachable

38:                                               ; No predecessors!
  br label %39

39:                                               ; preds = %38
  br label %40

40:                                               ; preds = %39, %25
  %41 = load ptr, ptr %2, align 8
  %42 = getelementptr inbounds nuw %struct.FunctionCallInfoBaseData, ptr %41, i32 0, i32 6
  %43 = getelementptr inbounds [0 x %struct.NullableDatum], ptr %42, i64 0, i64 0
  %44 = getelementptr inbounds nuw %struct.NullableDatum, ptr %43, i32 0, i32 1
  %45 = load i8, ptr %44, align 8, !range !4, !noundef !5
  %46 = trunc i8 %45 to i1
  br i1 %46, label %47, label %51

47:                                               ; preds = %40
  %48 = load i32, ptr %3, align 4
  %49 = load ptr, ptr %4, align 8
  %50 = call ptr @initArrayResult(i32 noundef %48, ptr noundef %49, i1 noundef zeroext false)
  store ptr %50, ptr %5, align 8
  br label %58

51:                                               ; preds = %40
  %52 = load ptr, ptr %2, align 8
  %53 = getelementptr inbounds nuw %struct.FunctionCallInfoBaseData, ptr %52, i32 0, i32 6
  %54 = getelementptr inbounds [0 x %struct.NullableDatum], ptr %53, i64 0, i64 0
  %55 = getelementptr inbounds nuw %struct.NullableDatum, ptr %54, i32 0, i32 0
  %56 = load i64, ptr %55, align 8
  %57 = call ptr @DatumGetPointer(i64 noundef %56)
  store ptr %57, ptr %5, align 8
  br label %58

58:                                               ; preds = %51, %47
  %59 = load ptr, ptr %2, align 8
  %60 = getelementptr inbounds nuw %struct.FunctionCallInfoBaseData, ptr %59, i32 0, i32 6
  %61 = getelementptr inbounds [0 x %struct.NullableDatum], ptr %60, i64 0, i64 1
  %62 = getelementptr inbounds nuw %struct.NullableDatum, ptr %61, i32 0, i32 1
  %63 = load i8, ptr %62, align 8, !range !4, !noundef !5
  %64 = trunc i8 %63 to i1
  br i1 %64, label %65, label %66

65:                                               ; preds = %58
  br label %72

66:                                               ; preds = %58
  %67 = load ptr, ptr %2, align 8
  %68 = getelementptr inbounds nuw %struct.FunctionCallInfoBaseData, ptr %67, i32 0, i32 6
  %69 = getelementptr inbounds [0 x %struct.NullableDatum], ptr %68, i64 0, i64 1
  %70 = getelementptr inbounds nuw %struct.NullableDatum, ptr %69, i32 0, i32 0
  %71 = load i64, ptr %70, align 8
  br label %72

72:                                               ; preds = %66, %65
  %73 = phi i64 [ 0, %65 ], [ %71, %66 ]
  store i64 %73, ptr %6, align 8
  %74 = load ptr, ptr %5, align 8
  %75 = load i64, ptr %6, align 8
  %76 = load ptr, ptr %2, align 8
  %77 = getelementptr inbounds nuw %struct.FunctionCallInfoBaseData, ptr %76, i32 0, i32 6
  %78 = getelementptr inbounds [0 x %struct.NullableDatum], ptr %77, i64 0, i64 1
  %79 = getelementptr inbounds nuw %struct.NullableDatum, ptr %78, i32 0, i32 1
  %80 = load i8, ptr %79, align 8, !range !4, !noundef !5
  %81 = trunc i8 %80 to i1
  %82 = load i32, ptr %3, align 4
  %83 = load ptr, ptr %4, align 8
  %84 = call ptr @accumArrayResult(ptr noundef %74, i64 noundef %75, i1 noundef zeroext %81, i32 noundef %82, ptr noundef %83)
  store ptr %84, ptr %5, align 8
  %85 = load ptr, ptr %5, align 8
  %86 = call i64 @PointerGetDatum(ptr noundef %85)
  call void @llvm.lifetime.end.p0(i64 8, ptr %6) #7
  call void @llvm.lifetime.end.p0(i64 8, ptr %5) #7
  call void @llvm.lifetime.end.p0(i64 8, ptr %4) #7
  call void @llvm.lifetime.end.p0(i64 4, ptr %3) #7
  ret i64 %86
}